target datalayout = "e-m:e-p270:32:32-p271:32:32-p272:64:64-i64:64-i128:128-f80:128-n8:16:32:64-S128"
target triple = "x86_64-pc-linux-gnu"

%"class.OpenImageIO::v3_1_0::CSHA1" = type { [5 x i32], [2 x i32], [1 x i32], [64 x i8], [20 x i8], [3 x i32], [64 x i8], ptr }

@.str.5 = private unnamed_addr constant [2 x i8] c"\80\00", align 1
@.str.6 = private unnamed_addr constant [2 x i8] zeroinitializer, align 1

; Function Attrs: mustprogress nounwind uwtable
define hidden void @_ZN11OpenImageIO6v3_1_05CSHA16UpdateEPKhj(ptr noundef nonnull align 8 dereferenceable(200) %0, ptr noundef %1, i32 noundef %2) #7 align 2 {
  %4 = alloca ptr, align 8
  %5 = alloca ptr, align 8
  %6 = alloca i32, align 4
  %7 = alloca i32, align 4
  %8 = alloca i32, align 4
  store ptr %0, ptr %4, align 8, !tbaa !20
  store ptr %1, ptr %5, align 8, !tbaa !21
  store i32 %2, ptr %6, align 4, !tbaa !23
  %9 = load ptr, ptr %4, align 8
  call void @llvm.lifetime.start.p0(i64 4, ptr %7) #4
  %10 = getelementptr inbounds nuw %"class.OpenImageIO::v3_1_0::CSHA1", ptr %9, i32 0, i32 1
  %11 = getelementptr inbounds [2 x i32], ptr %10, i64 0, i64 0
  %12 = load i32, ptr %11, align 4, !tbaa !23
  %13 = lshr i32 %12, 3
  %14 = and i32 %13, 63
  store i32 %14, ptr %7, align 4, !tbaa !23
  %15 = load i32, ptr %6, align 4, !tbaa !23
  %16 = shl i32 %15, 3
  %17 = getelementptr inbounds nuw %"class.OpenImageIO::v3_1_0::CSHA1", ptr %9, i32 0, i32 1
  %18 = getelementptr inbounds [2 x i32], ptr %17, i64 0, i64 0
  %19 = load i32, ptr %18, align 4, !tbaa !23
  %20 = add i32 %19, %16
  store i32 %20, ptr %18, align 4, !tbaa !23
  %21 = load i32, ptr %6, align 4, !tbaa !23
  %22 = shl i32 %21, 3
  %23 = icmp ult i32 %20, %22
  br i1 %23, label %24, label %29

24:                                               ; preds = %3
  %25 = getelementptr inbounds nuw %"class.OpenImageIO::v3_1_0::CSHA1", ptr %9, i32 0, i32 1
  %26 = getelementptr inbounds [2 x i32], ptr %25, i64 0, i64 1
  %27 = load i32, ptr %26, align 4, !tbaa !23
  %28 = add i32 %27, 1
  store i32 %28, ptr %26, align 4, !tbaa !23
  br label %29

29:                                               ; preds = %24, %3
  %30 = load i32, ptr %6, align 4, !tbaa !23
  %31 = lshr i32 %30, 29
  %32 = getelementptr inbounds nuw %"class.OpenImageIO::v3_1_0::CSHA1", ptr %9, i32 0, i32 1
  %33 = getelementptr inbounds [2 x i32], ptr %32, i64 0, i64 1
  %34 = load i32, ptr %33, align 4, !tbaa !23
  %35 = add i32 %34, %31
  store i32 %35, ptr %33, align 4, !tbaa !23
  call void @llvm.lifetime.start.p0(i64 4, ptr %8) #4
  %36 = load i32, ptr %7, align 4, !tbaa !23
  %37 = load i32, ptr %6, align 4, !tbaa !23
  %38 = add i32 %36, %37
  %39 = icmp ugt i32 %38, 63
  br i1 %39, label %40, label %70

40:                                               ; preds = %29
  %41 = load i32, ptr %7, align 4, !tbaa !23
  %42 = sub i32 64, %41
  store i32 %42, ptr %8, align 4, !tbaa !23
  %43 = getelementptr inbounds nuw %"class.OpenImageIO::v3_1_0::CSHA1", ptr %9, i32 0, i32 3
  %44 = load i32, ptr %7, align 4, !tbaa !23
  %45 = zext i32 %44 to i64
  %46 = getelementptr inbounds nuw [64 x i8], ptr %43, i64 0, i64 %45
  %47 = load ptr, ptr %5, align 8, !tbaa !21
  %48 = load i32, ptr %8, align 4, !tbaa !23
  %49 = zext i32 %48 to i64
  call void @llvm.memcpy.p0.p0.i64(ptr align 1 %46, ptr align 1 %47, i64 %49, i1 false)
  %50 = getelementptr inbounds nuw %"class.OpenImageIO::v3_1_0::CSHA1", ptr %9, i32 0, i32 0
  %51 = getelementptr inbounds [5 x i32], ptr %50, i64 0, i64 0
  %52 = getelementptr inbounds nuw %"class.OpenImageIO::v3_1_0::CSHA1", ptr %9, i32 0, i32 3
  %53 = getelementptr inbounds [64 x i8], ptr %52, i64 0, i64 0
  call void @_ZN11OpenImageIO6v3_1_05CSHA19TransformEPjPKh(ptr noundef nonnull align 8 dereferenceable(200) %9, ptr noundef %51, ptr noundef %53)
  br label %54

54:                                               ; preds = %66, %40
  %55 = load i32, ptr %8, align 4, !tbaa !23
  %56 = add i32 %55, 63
  %57 = load i32, ptr %6, align 4, !tbaa !23
  %58 = icmp ult i32 %56, %57
  br i1 %58, label %59, label %69

59:                                               ; preds = %54
  %60 = getelementptr inbounds nuw %"class.OpenImageIO::v3_1_0::CSHA1", ptr %9, i32 0, i32 0
  %61 = getelementptr inbounds [5 x i32], ptr %60, i64 0, i64 0
  %62 = load ptr, ptr %5, align 8, !tbaa !21
  %63 = load i32, ptr %8, align 4, !tbaa !23
  %64 = zext i32 %63 to i64
  %65 = getelementptr inbounds nuw i8, ptr %62, i64 %64
  call void @_ZN11OpenImageIO6v3_1_05CSHA19TransformEPjPKh(ptr noundef nonnull align 8 dereferenceable(200) %9, ptr noundef %61, ptr noundef %65)
  br label %66

66:                                               ; preds = %59
  %67 = load i32, ptr %8, align 4, !tbaa !23
  %68 = add i32 %67, 64
  store i32 %68, ptr %8, align 4, !tbaa !23
  br label %54, !llvm.loop !25

69:                                               ; preds = %54
  store i32 0, ptr %7, align 4, !tbaa !23
  br label %71

70:                                               ; preds = %29
  store i32 0, ptr %8, align 4, !tbaa !23
  br label %71

71:                                               ; preds = %70, %69
  %72 = load i32, ptr %6, align 4, !tbaa !23
  %73 = load i32, ptr %8, align 4, !tbaa !23
  %74 = sub i32 %72, %73
  %75 = icmp ne i32 %74, 0
  br i1 %75, label %76, label %89

76:                                               ; preds = %71
  %77 = getelementptr inbounds nuw %"class.OpenImageIO::v3_1_0::CSHA1", ptr %9, i32 0, i32 3
  %78 = load i32, ptr %7, align 4, !tbaa !23
  %79 = zext i32 %78 to i64
  %80 = getelementptr inbounds nuw [64 x i8], ptr %77, i64 0, i64 %79
  %81 = load ptr, ptr %5, align 8, !tbaa !21
  %82 = load i32, ptr %8, align 4, !tbaa !23
  %83 = zext i32 %82 to i64
  %84 = getelementptr inbounds nuw i8, ptr %81, i64 %83
  %85 = load i32, ptr %6, align 4, !tbaa !23
  %86 = load i32, ptr %8, align 4, !tbaa !23
  %87 = sub i32 %85, %86
  %88 = zext i32 %87 to i64
  call void @llvm.memcpy.p0.p0.i64(ptr align 1 %80, ptr align 1 %84, i64 %88, i1 false)
  br label %89

89:                                               ; preds = %76, %71
  call void @llvm.lifetime.end.p0(i64 4, ptr %8) #4
  call void @llvm.lifetime.end.p0(i64 4, ptr %7) #4
  ret void
}

; Function Attrs: mustprogress nounwind uwtable
define hidden void @_ZN11OpenImageIO6v3_1_05CSHA15FinalEv(ptr noundef nonnull align 8 dereferenceable(200) %0) #7 align 2 {
  %2 = alloca ptr, align 8
  %3 = alloca i32, align 4
  %4 = alloca [8 x i8], align 1
  store ptr %0, ptr %2, align 8, !tbaa !20
  %5 = load ptr, ptr %2, align 8
  call void @llvm.lifetime.start.p0(i64 4, ptr %3) #4
  call void @llvm.lifetime.start.p0(i64 8, ptr %4) #4
  store i32 0, ptr %3, align 4, !tbaa !23
  br label %6

6:                                                ; preds = %27, %1
  %7 = load i32, ptr %3, align 4, !tbaa !23
  %8 = icmp ult i32 %7, 8
  br i1 %8, label %9, label %30

9:                                                ; preds = %6
  %10 = getelementptr inbounds nuw %"class.OpenImageIO::v3_1_0::CSHA1", ptr %5, i32 0, i32 1
  %11 = load i32, ptr %3, align 4, !tbaa !23
  %12 = icmp uge i32 %11, 4
  %13 = select i1 %12, i32 0, i32 1
  %14 = sext i32 %13 to i64
  %15 = getelementptr inbounds [2 x i32], ptr %10, i64 0, i64 %14
  %16 = load i32, ptr %15, align 4, !tbaa !23
  %17 = load i32, ptr %3, align 4, !tbaa !23
  %18 = and i32 %17, 3
  %19 = sub i32 3, %18
  %20 = mul i32 %19, 8
  %21 = lshr i32 %16, %20
  %22 = and i32 %21, 255
  %23 = trunc i32 %22 to i8
  %24 = load i32, ptr %3, align 4, !tbaa !23
  %25 = zext i32 %24 to i64
  %26 = getelementptr inbounds nuw [8 x i8], ptr %4, i64 0, i64 %25
  store i8 %23, ptr %26, align 1, !tbaa !29
  br label %27

27:                                               ; preds = %9
  %28 = load i32, ptr %3, align 4, !tbaa !23
  %29 = add i32 %28, 1
  store i32 %29, ptr %3, align 4, !tbaa !23
  br label %6, !llvm.loop !30

30:                                               ; preds = %6
  call void @_ZN11OpenImageIO6v3_1_05CSHA16UpdateEPKhj(ptr noundef nonnull align 8 dereferenceable(200) %5, ptr noundef @.str.5, i32 noundef 1)
  br label %31

31:                                               ; preds = %37, %30
  %32 = getelementptr inbounds nuw %"class.OpenImageIO::v3_1_0::CSHA1", ptr %5, i32 0, i32 1
  %33 = getelementptr inbounds [2 x i32], ptr %32, i64 0, i64 0
  %34 = load i32, ptr %33, align 4, !tbaa !23
  %35 = and i32 %34, 504
  %36 = icmp ne i32 %35, 448
  br i1 %36, label %37, label %38

37:                                               ; preds = %31
  call void @_ZN11OpenImageIO6v3_1_05CSHA16UpdateEPKhj(ptr noundef nonnull align 8 dereferenceable(200) %5, ptr noundef @.str.6, i32 noundef 1)
  br label %31, !llvm.loop !31

38:                                               ; preds = %31
  %39 = getelementptr inbounds [8 x i8], ptr %4, i64 0, i64 0
  call void @_ZN11OpenImageIO6v3_1_05CSHA16UpdateEPKhj(ptr noundef nonnull align 8 dereferenceable(200) %5, ptr noundef %39, i32 noundef 8)
  store i32 0, ptr %3, align 4, !tbaa !23
  br label %40

40:                                               ; preds = %61, %38
  %41 = load i32, ptr %3, align 4, !tbaa !23
  %42 = icmp ult i32 %41, 20
  br i1 %42, label %43, label %64

43:                                               ; preds = %40
  %44 = getelementptr inbounds nuw %"class.OpenImageIO::v3_1_0::CSHA1", ptr %5, i32 0, i32 0
  %45 = load i32, ptr %3, align 4, !tbaa !23
  %46 = lshr i32 %45, 2
  %47 = zext i32 %46 to i64
  %48 = getelementptr inbounds nuw [5 x i32], ptr %44, i64 0, i64 %47
  %49 = load i32, ptr %48, align 4, !tbaa !23
  %50 = load i32, ptr %3, align 4, !tbaa !23
  %51 = and i32 %50, 3
  %52 = sub i32 3, %51
  %53 = mul i32 %52, 8
  %54 = lshr i32 %49, %53
  %55 = and i32 %54, 255
  %56 = trunc i32 %55 to i8
  %57 = getelementptr inbounds nuw %"class.OpenImageIO::v3_1_0::CSHA1", ptr %5, i32 0, i32 4
  %58 = load i32, ptr %3, align 4, !tbaa !23
  %59 = zext i32 %58 to i64
  %60 = getelementptr inbounds nuw [20 x i8], ptr %57, i64 0, i64 %59
  store i8 %56, ptr %60, align 1, !tbaa !29
  br label %61

61:                                               ; preds = %43
  %62 = load i32, ptr %3, align 4, !tbaa !23
  %63 = add i32 %62, 1
  store i32 %63, ptr %3, align 4, !tbaa !23
  br label %40, !llvm.loop !32

64:                                               ; preds = %40
  call void @llvm.lifetime.end.p0(i64 8, ptr %4) #4
  call void @llvm.lifetime.end.p0(i64 4, ptr %3) #4
  ret void
}