; Function Attrs: mustprogress nofree norecurse nosync nounwind memory(readwrite, inaccessiblemem: none) uwtable
define hidden void @_ZN11OpenImageIO6v3_1_05CSHA15FinalEv(ptr noundef nonnull align 8 captures(none) dereferenceable(200) %0) local_unnamed_addr #9 align 2 {
  %2 = alloca [8 x i8], align 8
  call void @llvm.lifetime.start.p0(i64 8, ptr nonnull %2) #22
  %3 = getelementptr inbounds nuw i8, ptr %0, i64 20
  br label %4

4:                                                ; preds = %1, %4
  %indvars.iv = phi i64 [ 0, %1 ], [ %indvars.iv.next, %4 ]
  %5 = icmp samesign ult i64 %indvars.iv, 4
  %6 = zext i1 %5 to i64
  %7 = getelementptr inbounds nuw [2 x i32], ptr %3, i64 0, i64 %6
  %8 = load i32, ptr %7, align 4, !tbaa !8
  %indvars.iv.tr = trunc i64 %indvars.iv to i32
  %9 = shl i32 %indvars.iv.tr, 3
  %10 = and i32 %9, 24
  %11 = xor i32 %10, 24
  %12 = lshr i32 %8, %11
  %13 = trunc i32 %12 to i8
  %14 = getelementptr inbounds nuw [8 x i8], ptr %2, i64 0, i64 %indvars.iv
  store i8 %13, ptr %14, align 1, !tbaa !22
  %indvars.iv.next = add nuw nsw i64 %indvars.iv, 1
  %exitcond.not = icmp eq i64 %indvars.iv.next, 8
  br i1 %exitcond.not, label %15, label %4, !llvm.loop !23

15:                                               ; preds = %4
  %16 = load i32, ptr %3, align 4, !tbaa !8
  %17 = lshr i32 %16, 3
  %18 = and i32 %17, 63
  %19 = add i32 %16, 8
  store i32 %19, ptr %3, align 4, !tbaa !8
  %20 = icmp ugt i32 %16, -9
  %21 = getelementptr inbounds nuw i8, ptr %0, i64 24
  %22 = load i32, ptr %21, align 8, !tbaa !8
  %23 = zext i1 %20 to i32
  %24 = add i32 %22, %23
  store i32 %24, ptr %21, align 8, !tbaa !8
  %25 = icmp eq i32 %18, 63
  br i1 %25, label %.loopexit.i, label %.loopexit.i.thread

.loopexit.i.thread:                               ; preds = %15
  %26 = zext nneg i32 %18 to i64
  %27 = getelementptr inbounds nuw i8, ptr %0, i64 32
  %28 = getelementptr inbounds nuw [64 x i8], ptr %27, i64 0, i64 %26
  store i8 -128, ptr %28, align 1
  br label %_ZN11OpenImageIO6v3_1_05CSHA16UpdateEPKhj.exit

.loopexit.i:                                      ; preds = %15
  %29 = getelementptr inbounds nuw i8, ptr %0, i64 32
  %30 = getelementptr inbounds nuw i8, ptr %0, i64 95
  store i8 -128, ptr %30, align 1
  tail call void @_ZN11OpenImageIO6v3_1_05CSHA19TransformEPjPKh(ptr noundef nonnull align 8 dereferenceable(200) %0, ptr noundef nonnull align 8 dereferenceable(200) %0, ptr noundef nonnull %29)
  %.pre = load i32, ptr %3, align 4, !tbaa !8
  br label %_ZN11OpenImageIO6v3_1_05CSHA16UpdateEPKhj.exit

_ZN11OpenImageIO6v3_1_05CSHA16UpdateEPKhj.exit:   ; preds = %.loopexit.i, %.loopexit.i.thread
  %31 = phi i32 [ %.pre, %.loopexit.i ], [ %19, %.loopexit.i.thread ]
  %32 = and i32 %31, 504
  %.not40 = icmp eq i32 %32, 448
  br i1 %.not40, label %.loopexit.i17, label %.lr.ph

.lr.ph:                                           ; preds = %_ZN11OpenImageIO6v3_1_05CSHA16UpdateEPKhj.exit
  %33 = getelementptr inbounds nuw i8, ptr %0, i64 32
  %34 = getelementptr inbounds nuw i8, ptr %0, i64 95
  br label %35

35:                                               ; preds = %.lr.ph, %_ZN11OpenImageIO6v3_1_05CSHA16UpdateEPKhj.exit16
  %36 = phi i32 [ %31, %.lr.ph ], [ %47, %_ZN11OpenImageIO6v3_1_05CSHA16UpdateEPKhj.exit16 ]
  %37 = lshr i32 %36, 3
  %38 = and i32 %37, 63
  %39 = add i32 %36, 8
  store i32 %39, ptr %3, align 4, !tbaa !8
  %40 = icmp ugt i32 %36, -9
  %41 = load i32, ptr %21, align 8, !tbaa !8
  %42 = zext i1 %40 to i32
  %43 = add i32 %41, %42
  store i32 %43, ptr %21, align 8, !tbaa !8
  %44 = icmp eq i32 %38, 63
  br i1 %44, label %.loopexit.i10, label %.loopexit.i10.thread

.loopexit.i10.thread:                             ; preds = %35
  %45 = zext nneg i32 %38 to i64
  %46 = getelementptr inbounds nuw [64 x i8], ptr %33, i64 0, i64 %45
  store i8 0, ptr %46, align 1
  br label %_ZN11OpenImageIO6v3_1_05CSHA16UpdateEPKhj.exit16

.loopexit.i10:                                    ; preds = %35
  store i8 0, ptr %34, align 1
  tail call void @_ZN11OpenImageIO6v3_1_05CSHA19TransformEPjPKh(ptr noundef nonnull align 8 dereferenceable(200) %0, ptr noundef nonnull align 8 dereferenceable(200) %0, ptr noundef nonnull %33)
  %.pre48 = load i32, ptr %3, align 4, !tbaa !8
  br label %_ZN11OpenImageIO6v3_1_05CSHA16UpdateEPKhj.exit16

_ZN11OpenImageIO6v3_1_05CSHA16UpdateEPKhj.exit16: ; preds = %.loopexit.i10, %.loopexit.i10.thread
  %47 = phi i32 [ %.pre48, %.loopexit.i10 ], [ %39, %.loopexit.i10.thread ]
  %48 = and i32 %47, 504
  %.not = icmp eq i32 %48, 448
  br i1 %.not, label %.loopexit.i17, label %35, !llvm.loop !24

.loopexit.i17:                                    ; preds = %_ZN11OpenImageIO6v3_1_05CSHA16UpdateEPKhj.exit16, %_ZN11OpenImageIO6v3_1_05CSHA16UpdateEPKhj.exit
  %.lcssa = phi i32 [ %31, %_ZN11OpenImageIO6v3_1_05CSHA16UpdateEPKhj.exit ], [ %47, %_ZN11OpenImageIO6v3_1_05CSHA16UpdateEPKhj.exit16 ]
  %49 = add i32 %.lcssa, 64
  store i32 %49, ptr %3, align 4, !tbaa !8
  %50 = icmp ugt i32 %.lcssa, -65
  %51 = load i32, ptr %21, align 8, !tbaa !8
  %52 = zext i1 %50 to i32
  %53 = add i32 %51, %52
  store i32 %53, ptr %21, align 8, !tbaa !8
  %54 = getelementptr inbounds nuw i8, ptr %0, i64 32
  %55 = getelementptr inbounds nuw i8, ptr %0, i64 88
  %56 = load i64, ptr %2, align 8
  store i64 %56, ptr %55, align 8
  tail call void @_ZN11OpenImageIO6v3_1_05CSHA19TransformEPjPKh(ptr noundef nonnull align 8 dereferenceable(200) %0, ptr noundef nonnull align 8 dereferenceable(200) %0, ptr noundef nonnull %54)
  %57 = getelementptr inbounds nuw i8, ptr %0, i64 96
  br label %58

58:                                               ; preds = %.loopexit.i17, %58
  %indvars.iv44 = phi i64 [ 0, %.loopexit.i17 ], [ %indvars.iv.next45, %58 ]
  %59 = lshr i64 %indvars.iv44, 2
  %60 = and i64 %59, 1073741823
  %61 = getelementptr inbounds nuw [5 x i32], ptr %0, i64 0, i64 %60
  %62 = load i32, ptr %61, align 4, !tbaa !8
  %indvars.iv44.tr = trunc i64 %indvars.iv44 to i32
  %63 = shl i32 %indvars.iv44.tr, 3
  %64 = and i32 %63, 24
  %65 = xor i32 %64, 24
  %66 = lshr i32 %62, %65
  %67 = trunc i32 %66 to i8
  %68 = getelementptr inbounds nuw [20 x i8], ptr %57, i64 0, i64 %indvars.iv44
  store i8 %67, ptr %68, align 1, !tbaa !22
  %indvars.iv.next45 = add nuw nsw i64 %indvars.iv44, 1
  %exitcond47.not = icmp eq i64 %indvars.iv.next45, 20
  br i1 %exitcond47.not, label %69, label %58, !llvm.loop !25

69:                                               ; preds = %58
  call void @llvm.lifetime.end.p0(i64 8, ptr nonnull %2) #22
  ret void
}